; Function Attrs: nounwind uwtable
define internal ptr @new_module(ptr noundef %0, ptr readnone captures(none) %1, ptr readnone captures(none) %2) #0 {
  %4 = tail call ptr @_PyType_AllocNoTrack(ptr noundef %0, i64 noundef 0) #8
  %5 = icmp eq ptr %4, null
  br i1 %5, label %new_module_notrack.exit.thread, label %6

6:                                                ; preds = %3
  %7 = getelementptr inbounds nuw i8, ptr %4, i64 24
  tail call void @llvm.memset.p0.i64(ptr noundef nonnull align 8 dereferenceable(32) %7, i8 0, i64 32, i1 false)
  %8 = tail call ptr @PyDict_New() #8
  %9 = getelementptr inbounds nuw i8, ptr %4, i64 16
  store ptr %8, ptr %9, align 8, !tbaa !23
  %10 = icmp eq ptr %8, null
  br i1 %10, label %11, label %new_module_notrack.exit

11:                                               ; preds = %6
  %12 = load i32, ptr %4, align 8, !tbaa !22
  %.not.i.i = icmp sgt i32 %12, -1
  br i1 %.not.i.i, label %13, label %new_module_notrack.exit.thread

13:                                               ; preds = %11
  %14 = add nsw i32 %12, -1
  store i32 %14, ptr %4, align 8, !tbaa !22
  %15 = icmp eq i32 %14, 0
  br i1 %15, label %16, label %new_module_notrack.exit.thread

16:                                               ; preds = %13
  tail call void @_Py_Dealloc(ptr noundef nonnull %4) #8
  br label %new_module_notrack.exit.thread

new_module_notrack.exit:                          ; preds = %6
  tail call void @_PyDict_EnablePerThreadRefcounting(ptr noundef nonnull %8) #8
  tail call void @_PyObject_SetDeferredRefcount(ptr noundef nonnull %4) #8
  tail call void @PyObject_GC_Track(ptr noundef nonnull %4) #8
  br label %new_module_notrack.exit.thread

new_module_notrack.exit.thread:                   ; preds = %16, %13, %11, %3, %new_module_notrack.exit
  %.0.i6 = phi ptr [ %4, %new_module_notrack.exit ], [ null, %3 ], [ null, %11 ], [ null, %13 ], [ null, %16 ]
  ret ptr %.0.i6
}